; ModuleID = '41/586.cpp'
source_filename = "41/586.cpp"
target datalayout = "e-m:e-p270:32:32-p271:32:32-p272:64:64-i64:64-f80:128-n8:16:32:64-S128"
target triple = "x86_64-pc-linux-gnu"

%"class.std::ios_base::Init" = type { i8 }
%"class.std::basic_ostream" = type { i32 (...)**, %"class.std::basic_ios" }
%"class.std::basic_ios" = type { %"class.std::ios_base", %"class.std::basic_ostream"*, i8, i8, %"class.std::basic_streambuf"*, %"class.std::ctype"*, %"class.std::num_put"*, %"class.std::num_get"* }
%"class.std::ios_base" = type { i32 (...)**, i64, i64, i32, i32, i32, %"struct.std::ios_base::_Callback_list"*, %"struct.std::ios_base::_Words", [8 x %"struct.std::ios_base::_Words"], i32, %"struct.std::ios_base::_Words"*, %"class.std::locale" }
%"struct.std::ios_base::_Callback_list" = type { %"struct.std::ios_base::_Callback_list"*, void (i32, %"class.std::ios_base"*, i32)*, i32, i32 }
%"struct.std::ios_base::_Words" = type { i8*, i64 }
%"class.std::locale" = type { %"class.std::locale::_Impl"* }
%"class.std::locale::_Impl" = type { i32, %"class.std::locale::facet"**, i64, %"class.std::locale::facet"**, i8** }
%"class.std::locale::facet" = type <{ i32 (...)**, i32, [4 x i8] }>
%"class.std::basic_streambuf" = type { i32 (...)**, i8*, i8*, i8*, i8*, i8*, i8*, %"class.std::locale" }
%"class.std::ctype" = type <{ %"class.std::locale::facet.base", [4 x i8], %struct.__locale_struct*, i8, [7 x i8], i32*, i32*, i16*, i8, [256 x i8], [256 x i8], i8, [6 x i8] }>
%"class.std::locale::facet.base" = type <{ i32 (...)**, i32 }>
%struct.__locale_struct = type { [13 x %struct.__locale_data*], i16*, i32*, i32*, [13 x i8*] }
%struct.__locale_data = type opaque
%"class.std::num_put" = type { %"class.std::locale::facet.base", [4 x i8] }
%"class.std::num_get" = type { %"class.std::locale::facet.base", [4 x i8] }

@_ZStL8__ioinit = internal global %"class.std::ios_base::Init" zeroinitializer, align 1
@__dso_handle = external hidden global i8
@_ZSt4cout = external dso_local global %"class.std::basic_ostream", align 8
@llvm.global_ctors = appending global [1 x { i32, void ()*, i8* }] [{ i32, void ()*, i8* } { i32 65535, void ()* @_GLOBAL__sub_I_586.cpp, i8* null }]

; Function Attrs: noinline uwtable
define internal void @__cxx_global_var_init() #0 section ".text.startup" {
  call void @_ZNSt8ios_base4InitC1Ev(%"class.std::ios_base::Init"* @_ZStL8__ioinit)
  %1 = call i32 @__cxa_atexit(void (i8*)* bitcast (void (%"class.std::ios_base::Init"*)* @_ZNSt8ios_base4InitD1Ev to void (i8*)*), i8* getelementptr inbounds (%"class.std::ios_base::Init", %"class.std::ios_base::Init"* @_ZStL8__ioinit, i32 0, i32 0), i8* @__dso_handle) #3
  ret void
}

declare dso_local void @_ZNSt8ios_base4InitC1Ev(%"class.std::ios_base::Init"*) unnamed_addr #1

; Function Attrs: nounwind
declare dso_local void @_ZNSt8ios_base4InitD1Ev(%"class.std::ios_base::Init"*) unnamed_addr #2

; Function Attrs: nounwind
declare dso_local i32 @__cxa_atexit(void (i8*)*, i8*, i8*) #3

; Function Attrs: noinline norecurse uwtable
define dso_local i32 @main() #4 {
  %1 = alloca i32, align 4
  %2 = alloca i32, align 4
  %3 = alloca i32, align 4
  %4 = alloca i32, align 4
  %5 = alloca i32, align 4
  %6 = alloca i32, align 4
  %7 = alloca [6 x i32], align 16
  %8 = alloca i32, align 4
  %9 = alloca i32, align 4
  %10 = alloca i32, align 4
  %11 = alloca i32, align 4
  store i32 0, i32* %1, align 4
  store i32 1, i32* %8, align 4
  br label %12

12:                                               ; preds = %146, %0
  %13 = load i32, i32* %8, align 4
  %14 = icmp sle i32 %13, 5
  br i1 %14, label %15, label %149

15:                                               ; preds = %12
  store i32 1, i32* %9, align 4
  br label %16

16:                                               ; preds = %142, %15
  %17 = load i32, i32* %9, align 4
  %18 = icmp sle i32 %17, 5
  br i1 %18, label %19, label %145

19:                                               ; preds = %16
  %20 = load i32, i32* %8, align 4
  %21 = load i32, i32* %9, align 4
  %22 = icmp eq i32 %20, %21
  br i1 %22, label %23, label %24

23:                                               ; preds = %19
  br label %142

24:                                               ; preds = %19
  store i32 1, i32* %10, align 4
  br label %25

25:                                               ; preds = %138, %24
  %26 = load i32, i32* %10, align 4
  %27 = icmp sle i32 %26, 5
  br i1 %27, label %28, label %141

28:                                               ; preds = %25
  %29 = load i32, i32* %8, align 4
  %30 = load i32, i32* %10, align 4
  %31 = icmp eq i32 %29, %30
  br i1 %31, label %36, label %32

32:                                               ; preds = %28
  %33 = load i32, i32* %9, align 4
  %34 = load i32, i32* %10, align 4
  %35 = icmp eq i32 %33, %34
  br i1 %35, label %36, label %37

36:                                               ; preds = %32, %28
  br label %138

37:                                               ; preds = %32
  store i32 1, i32* %11, align 4
  br label %38

38:                                               ; preds = %134, %37
  %39 = load i32, i32* %11, align 4
  %40 = icmp sle i32 %39, 5
  br i1 %40, label %41, label %137

41:                                               ; preds = %38
  %42 = load i32, i32* %8, align 4
  %43 = load i32, i32* %11, align 4
  %44 = icmp eq i32 %42, %43
  br i1 %44, label %53, label %45

45:                                               ; preds = %41
  %46 = load i32, i32* %9, align 4
  %47 = load i32, i32* %11, align 4
  %48 = icmp eq i32 %46, %47
  br i1 %48, label %53, label %49

49:                                               ; preds = %45
  %50 = load i32, i32* %10, align 4
  %51 = load i32, i32* %11, align 4
  %52 = icmp eq i32 %50, %51
  br i1 %52, label %53, label %54

53:                                               ; preds = %49, %45, %41
  br label %134

54:                                               ; preds = %49
  %55 = load i32, i32* %8, align 4
  %56 = sub nsw i32 15, %55
  %57 = load i32, i32* %9, align 4
  %58 = sub nsw i32 %56, %57
  %59 = load i32, i32* %10, align 4
  %60 = sub nsw i32 %58, %59
  %61 = load i32, i32* %11, align 4
  %62 = sub nsw i32 %60, %61
  store i32 %62, i32* %6, align 4
  %63 = load i32, i32* %6, align 4
  %64 = icmp eq i32 %63, 1
  %65 = zext i1 %64 to i32
  %66 = load i32, i32* %8, align 4
  %67 = sext i32 %66 to i64
  %68 = getelementptr inbounds [6 x i32], [6 x i32]* %7, i64 0, i64 %67
  store i32 %65, i32* %68, align 4
  %69 = load i32, i32* %9, align 4
  %70 = icmp eq i32 %69, 2
  %71 = zext i1 %70 to i32
  %72 = load i32, i32* %9, align 4
  %73 = sext i32 %72 to i64
  %74 = getelementptr inbounds [6 x i32], [6 x i32]* %7, i64 0, i64 %73
  store i32 %71, i32* %74, align 4
  %75 = load i32, i32* %8, align 4
  %76 = icmp eq i32 %75, 5
  %77 = zext i1 %76 to i32
  %78 = load i32, i32* %10, align 4
  %79 = sext i32 %78 to i64
  %80 = getelementptr inbounds [6 x i32], [6 x i32]* %7, i64 0, i64 %79
  store i32 %77, i32* %80, align 4
  %81 = load i32, i32* %10, align 4
  %82 = icmp ne i32 %81, 1
  %83 = zext i1 %82 to i32
  %84 = load i32, i32* %11, align 4
  %85 = sext i32 %84 to i64
  %86 = getelementptr inbounds [6 x i32], [6 x i32]* %7, i64 0, i64 %85
  store i32 %83, i32* %86, align 4
  %87 = load i32, i32* %11, align 4
  %88 = icmp eq i32 %87, 1
  %89 = zext i1 %88 to i32
  %90 = load i32, i32* %6, align 4
  %91 = sext i32 %90 to i64
  %92 = getelementptr inbounds [6 x i32], [6 x i32]* %7, i64 0, i64 %91
  store i32 %89, i32* %92, align 4
  %93 = getelementptr inbounds [6 x i32], [6 x i32]* %7, i64 0, i64 1
  %94 = load i32, i32* %93, align 4
  %95 = icmp eq i32 %94, 1
  br i1 %95, label %96, label %133

96:                                               ; preds = %54
  %97 = getelementptr inbounds [6 x i32], [6 x i32]* %7, i64 0, i64 2
  %98 = load i32, i32* %97, align 8
  %99 = icmp eq i32 %98, 1
  br i1 %99, label %100, label %133

100:                                              ; preds = %96
  %101 = load i32, i32* %6, align 4
  %102 = icmp ne i32 %101, 2
  br i1 %102, label %103, label %133

103:                                              ; preds = %100
  %104 = load i32, i32* %6, align 4
  %105 = icmp ne i32 %104, 3
  br i1 %105, label %106, label %133

106:                                              ; preds = %103
  %107 = getelementptr inbounds [6 x i32], [6 x i32]* %7, i64 0, i64 3
  %108 = load i32, i32* %107, align 4
  %109 = icmp eq i32 %108, 0
  br i1 %109, label %110, label %133

110:                                              ; preds = %106
  %111 = getelementptr inbounds [6 x i32], [6 x i32]* %7, i64 0, i64 4
  %112 = load i32, i32* %111, align 16
  %113 = icmp eq i32 %112, 0
  br i1 %113, label %114, label %133

114:                                              ; preds = %110
  %115 = getelementptr inbounds [6 x i32], [6 x i32]* %7, i64 0, i64 5
  %116 = load i32, i32* %115, align 4
  %117 = icmp eq i32 %116, 0
  br i1 %117, label %118, label %133

118:                                              ; preds = %114
  %119 = load i32, i32* %8, align 4
  %120 = call dereferenceable(272) %"class.std::basic_ostream"* @_ZNSolsEi(%"class.std::basic_ostream"* @_ZSt4cout, i32 %119)
  %121 = call dereferenceable(272) %"class.std::basic_ostream"* @_ZStlsISt11char_traitsIcEERSt13basic_ostreamIcT_ES5_c(%"class.std::basic_ostream"* dereferenceable(272) %120, i8 signext 32)
  %122 = load i32, i32* %9, align 4
  %123 = call dereferenceable(272) %"class.std::basic_ostream"* @_ZNSolsEi(%"class.std::basic_ostream"* %121, i32 %122)
  %124 = call dereferenceable(272) %"class.std::basic_ostream"* @_ZStlsISt11char_traitsIcEERSt13basic_ostreamIcT_ES5_c(%"class.std::basic_ostream"* dereferenceable(272) %123, i8 signext 32)
  %125 = load i32, i32* %10, align 4
  %126 = call dereferenceable(272) %"class.std::basic_ostream"* @_ZNSolsEi(%"class.std::basic_ostream"* %124, i32 %125)
  %127 = call dereferenceable(272) %"class.std::basic_ostream"* @_ZStlsISt11char_traitsIcEERSt13basic_ostreamIcT_ES5_c(%"class.std::basic_ostream"* dereferenceable(272) %126, i8 signext 32)
  %128 = load i32, i32* %11, align 4
  %129 = call dereferenceable(272) %"class.std::basic_ostream"* @_ZNSolsEi(%"class.std::basic_ostream"* %127, i32 %128)
  %130 = call dereferenceable(272) %"class.std::basic_ostream"* @_ZStlsISt11char_traitsIcEERSt13basic_ostreamIcT_ES5_c(%"class.std::basic_ostream"* dereferenceable(272) %129, i8 signext 32)
  %131 = load i32, i32* %6, align 4
  %132 = call dereferenceable(272) %"class.std::basic_ostream"* @_ZNSolsEi(%"class.std::basic_ostream"* %130, i32 %131)
  br label %133

133:                                              ; preds = %118, %114, %110, %106, %103, %100, %96, %54
  br label %134

134:                                              ; preds = %133, %53
  %135 = load i32, i32* %11, align 4
  %136 = add nsw i32 %135, 1
  store i32 %136, i32* %11, align 4
  br label %38

137:                                              ; preds = %38
  br label %138

138:                                              ; preds = %137, %36
  %139 = load i32, i32* %10, align 4
  %140 = add nsw i32 %139, 1
  store i32 %140, i32* %10, align 4
  br label %25

141:                                              ; preds = %25
  br label %142

142:                                              ; preds = %141, %23
  %143 = load i32, i32* %9, align 4
  %144 = add nsw i32 %143, 1
  store i32 %144, i32* %9, align 4
  br label %16

145:                                              ; preds = %16
  br label %146

146:                                              ; preds = %145
  %147 = load i32, i32* %8, align 4
  %148 = add nsw i32 %147, 1
  store i32 %148, i32* %8, align 4
  br label %12

149:                                              ; preds = %12
  ret i32 0
}

declare dso_local dereferenceable(272) %"class.std::basic_ostream"* @_ZStlsISt11char_traitsIcEERSt13basic_ostreamIcT_ES5_c(%"class.std::basic_ostream"* dereferenceable(272), i8 signext) #1

declare dso_local dereferenceable(272) %"class.std::basic_ostream"* @_ZNSolsEi(%"class.std::basic_ostream"*, i32) #1

; Function Attrs: noinline uwtable
define internal void @_GLOBAL__sub_I_586.cpp() #0 section ".text.startup" {
  call void @__cxx_global_var_init()
  ret void
}


!llvm.module.flags = !{!0}
!llvm.ident = !{!1}

!0 = !{i32 1, !"wchar_size", i32 4}
!1 = !{!"clang version 10.0.0-4ubuntu1 "}
